; Function Attrs: mustprogress uwtable
define hidden noundef zeroext i1 @_ZNK4cvc58internal5DType20isRecursiveSingletonEv(ptr noundef nonnull align 8 dereferenceable(448) %0) local_unnamed_addr #3 align 2 personality ptr @__gxx_personality_v0 {
  %2 = alloca %"class.cvc5::internal::TypeNode", align 8
  %3 = getelementptr inbounds nuw i8, ptr %0, i64 96
  %4 = load ptr, ptr %3, align 8, !tbaa !61
  store ptr %4, ptr %2, align 8, !tbaa !61
  %5 = load i64, ptr %4, align 8
  %6 = lshr i64 %5, 40
  %7 = trunc nuw nsw i64 %6 to i32
  %8 = and i32 %7, 1048575
  %9 = icmp samesign ult i32 %8, 1048574
  br i1 %9, label %10, label %15, !prof !92

10:                                               ; preds = %1
  %11 = add i64 %5, 1099511627776
  %12 = and i64 %11, 1152920405095219200
  %13 = and i64 %5, -1152920405095219201
  %14 = or disjoint i64 %12, %13
  store i64 %14, ptr %4, align 8
  br label %_ZN4cvc58internal8TypeNodeC2ERKS1_.exit

15:                                               ; preds = %1
  %16 = icmp eq i32 %8, 1048574
  br i1 %16, label %17, label %_ZN4cvc58internal8TypeNodeC2ERKS1_.exit, !prof !72

17:                                               ; preds = %15
  %18 = or i64 %5, 1152920405095219200
  store i64 %18, ptr %4, align 8
  tail call void @_ZN4cvc58internal4expr9NodeValue20markRefCountMaxedOutEv(ptr noundef nonnull align 8 dereferenceable(24) %4)
  br label %_ZN4cvc58internal8TypeNodeC2ERKS1_.exit

_ZN4cvc58internal8TypeNodeC2ERKS1_.exit:          ; preds = %10, %15, %17
  %19 = invoke noundef zeroext i1 @_ZNK4cvc58internal5DType20isRecursiveSingletonENS0_8TypeNodeE(ptr noundef nonnull align 8 dereferenceable(448) %0, ptr noundef nonnull %2)
          to label %20 unwind label %34

20:                                               ; preds = %_ZN4cvc58internal8TypeNodeC2ERKS1_.exit
  %21 = load ptr, ptr %2, align 8, !tbaa !61
  %22 = load i64, ptr %21, align 8
  %23 = and i64 %22, 1152920405095219200
  %.not.i.i = icmp eq i64 %23, 1152920405095219200
  br i1 %.not.i.i, label %_ZN4cvc58internal8TypeNodeD2Ev.exit, label %24, !prof !72

24:                                               ; preds = %20
  %25 = add i64 %22, 1152920405095219200
  %26 = and i64 %25, 1152920405095219200
  %27 = and i64 %22, -1152920405095219201
  %28 = or disjoint i64 %26, %27
  store i64 %28, ptr %21, align 8
  %29 = icmp eq i64 %26, 0
  br i1 %29, label %30, label %_ZN4cvc58internal8TypeNodeD2Ev.exit, !prof !72

30:                                               ; preds = %24
  invoke void @_ZN4cvc58internal4expr9NodeValue15markForDeletionEv(ptr noundef nonnull align 8 dereferenceable(24) %21)
          to label %_ZN4cvc58internal8TypeNodeD2Ev.exit unwind label %31

31:                                               ; preds = %30
  %32 = landingpad { ptr, i32 }
          catch ptr null
  %33 = extractvalue { ptr, i32 } %32, 0
  call void @__clang_call_terminate(ptr %33) #32
  unreachable

_ZN4cvc58internal8TypeNodeD2Ev.exit:              ; preds = %20, %24, %30
  ret i1 %19

34:                                               ; preds = %_ZN4cvc58internal8TypeNodeC2ERKS1_.exit
  %35 = landingpad { ptr, i32 }
          cleanup
  call void @_ZN4cvc58internal8TypeNodeD2Ev(ptr noundef nonnull align 8 dereferenceable(8) %2) #29
  resume { ptr, i32 } %35
}